target datalayout = "e-m:e-p270:32:32-p271:32:32-p272:64:64-i64:64-i128:128-f80:128-n8:16:32:64-S128"
target triple = "x86_64-pc-linux-gnu"

%struct.AVFilterContext = type { ptr, ptr, ptr, ptr, ptr, i32, ptr, ptr, i32, ptr, ptr, i32, i32, ptr, ptr, ptr, ptr, i32, ptr, i32, i32 }
%struct.AVRational = type { i32, i32 }
%struct.AVFilterFormatsConfig = type { ptr, ptr, ptr, ptr, ptr }
%struct.AVFilterLink = type { ptr, ptr, ptr, ptr, i32, i32, i32, i32, %struct.AVRational, i32, i32, i32, %struct.AVChannelLayout, %struct.AVRational, ptr, i32, %struct.AVFilterFormatsConfig, %struct.AVFilterFormatsConfig }
%struct.AVChannelLayout = type { i32, i32, %union.anon.1, ptr }
%union.anon.1 = type { i64 }
%struct.FilterLink = type { %struct.AVFilterLink, ptr, i64, i64, i32, i32, i64, i64, i64, i64, %struct.AVRational, ptr }

; Function Attrs: inlinehint nounwind uwtable
define internal ptr @ff_filter_link(ptr noundef %0) #8 {
  %2 = alloca ptr, align 8
  store ptr %0, ptr %2, align 8, !tbaa !89
  %3 = load ptr, ptr %2, align 8, !tbaa !89
  ret ptr %3
}

; Function Attrs: nounwind uwtable
define internal i32 @config_props_ref(ptr noundef %0) #1 {
  %2 = alloca ptr, align 8
  %3 = alloca ptr, align 8
  %4 = alloca ptr, align 8
  %5 = alloca ptr, align 8
  store ptr %0, ptr %2, align 8, !tbaa !89
  call void @llvm.lifetime.start.p0(i64 8, ptr %3) #12
  %6 = load ptr, ptr %2, align 8, !tbaa !89
  %7 = getelementptr inbounds nuw %struct.AVFilterLink, ptr %6, i32 0, i32 0
  %8 = load ptr, ptr %7, align 8, !tbaa !91
  %9 = getelementptr inbounds nuw %struct.AVFilterContext, ptr %8, i32 0, i32 4
  %10 = load ptr, ptr %9, align 8, !tbaa !97
  %11 = getelementptr inbounds ptr, ptr %10, i64 1
  %12 = load ptr, ptr %11, align 8, !tbaa !89
  store ptr %12, ptr %3, align 8, !tbaa !89
  call void @llvm.lifetime.start.p0(i64 8, ptr %4) #12
  %13 = load ptr, ptr %3, align 8, !tbaa !89
  %14 = call ptr @ff_filter_link(ptr noundef %13)
  store ptr %14, ptr %4, align 8, !tbaa !127
  call void @llvm.lifetime.start.p0(i64 8, ptr %5) #12
  %15 = load ptr, ptr %2, align 8, !tbaa !89
  %16 = call ptr @ff_filter_link(ptr noundef %15)
  store ptr %16, ptr %5, align 8, !tbaa !127
  %17 = load ptr, ptr %3, align 8, !tbaa !89
  %18 = getelementptr inbounds nuw %struct.AVFilterLink, ptr %17, i32 0, i32 6
  %19 = load i32, ptr %18, align 8, !tbaa !98
  %20 = load ptr, ptr %2, align 8, !tbaa !89
  %21 = getelementptr inbounds nuw %struct.AVFilterLink, ptr %20, i32 0, i32 6
  store i32 %19, ptr %21, align 8, !tbaa !98
  %22 = load ptr, ptr %3, align 8, !tbaa !89
  %23 = getelementptr inbounds nuw %struct.AVFilterLink, ptr %22, i32 0, i32 7
  %24 = load i32, ptr %23, align 4, !tbaa !99
  %25 = load ptr, ptr %2, align 8, !tbaa !89
  %26 = getelementptr inbounds nuw %struct.AVFilterLink, ptr %25, i32 0, i32 7
  store i32 %24, ptr %26, align 4, !tbaa !99
  %27 = load ptr, ptr %2, align 8, !tbaa !89
  %28 = getelementptr inbounds nuw %struct.AVFilterLink, ptr %27, i32 0, i32 8
  %29 = load ptr, ptr %3, align 8, !tbaa !89
  %30 = getelementptr inbounds nuw %struct.AVFilterLink, ptr %29, i32 0, i32 8
  call void @llvm.memcpy.p0.p0.i64(ptr align 8 %28, ptr align 8 %30, i64 8, i1 false), !tbaa.struct !105
  %31 = load ptr, ptr %2, align 8, !tbaa !89
  %32 = getelementptr inbounds nuw %struct.AVFilterLink, ptr %31, i32 0, i32 13
  %33 = load ptr, ptr %3, align 8, !tbaa !89
  %34 = getelementptr inbounds nuw %struct.AVFilterLink, ptr %33, i32 0, i32 13
  call void @llvm.memcpy.p0.p0.i64(ptr align 8 %32, ptr align 8 %34, i64 8, i1 false), !tbaa.struct !105
  %35 = load ptr, ptr %5, align 8, !tbaa !127
  %36 = getelementptr inbounds nuw %struct.FilterLink, ptr %35, i32 0, i32 10
  %37 = load ptr, ptr %4, align 8, !tbaa !127
  %38 = getelementptr inbounds nuw %struct.FilterLink, ptr %37, i32 0, i32 10
  call void @llvm.memcpy.p0.p0.i64(ptr align 8 %36, ptr align 8 %38, i64 8, i1 false), !tbaa.struct !105
  %39 = load ptr, ptr %3, align 8, !tbaa !89
  %40 = getelementptr inbounds nuw %struct.AVFilterLink, ptr %39, i32 0, i32 9
  %41 = load i32, ptr %40, align 8, !tbaa !108
  %42 = load ptr, ptr %2, align 8, !tbaa !89
  %43 = getelementptr inbounds nuw %struct.AVFilterLink, ptr %42, i32 0, i32 9
  store i32 %41, ptr %43, align 8, !tbaa !108
  %44 = load ptr, ptr %3, align 8, !tbaa !89
  %45 = getelementptr inbounds nuw %struct.AVFilterLink, ptr %44, i32 0, i32 10
  %46 = load i32, ptr %45, align 4, !tbaa !109
  %47 = load ptr, ptr %2, align 8, !tbaa !89
  %48 = getelementptr inbounds nuw %struct.AVFilterLink, ptr %47, i32 0, i32 10
  store i32 %46, ptr %48, align 4, !tbaa !109
  call void @llvm.lifetime.end.p0(i64 8, ptr %5) #12
  call void @llvm.lifetime.end.p0(i64 8, ptr %4) #12
  call void @llvm.lifetime.end.p0(i64 8, ptr %3) #12
  ret i32 0
}