; Function Attrs: mustprogress nofree norecurse nosync nounwind willreturn memory(read, argmem: readwrite, inaccessiblemem: none) uwtable
define internal noundef i32 @config_props_ref(ptr noundef captures(none) initializes((40, 64), (96, 104), (264, 272)) %0) #12 {
  %2 = load ptr, ptr %0, align 8, !tbaa !80
  %3 = getelementptr inbounds nuw i8, ptr %2, i64 32
  %4 = load ptr, ptr %3, align 8, !tbaa !86
  %5 = getelementptr inbounds nuw i8, ptr %4, i64 8
  %6 = load ptr, ptr %5, align 8, !tbaa !87
  %7 = getelementptr inbounds nuw i8, ptr %6, i64 40
  %8 = load i32, ptr %7, align 8, !tbaa !91
  %9 = getelementptr inbounds nuw i8, ptr %0, i64 40
  store i32 %8, ptr %9, align 8, !tbaa !91
  %10 = getelementptr inbounds nuw i8, ptr %6, i64 44
  %11 = load i32, ptr %10, align 4, !tbaa !92
  %12 = getelementptr inbounds nuw i8, ptr %0, i64 44
  store i32 %11, ptr %12, align 4, !tbaa !92
  %13 = getelementptr inbounds nuw i8, ptr %0, i64 48
  %14 = getelementptr inbounds nuw i8, ptr %6, i64 48
  %15 = load i64, ptr %14, align 8
  store i64 %15, ptr %13, align 8
  %16 = getelementptr inbounds nuw i8, ptr %0, i64 96
  %17 = getelementptr inbounds nuw i8, ptr %6, i64 96
  %18 = load i64, ptr %17, align 8
  store i64 %18, ptr %16, align 8
  %19 = getelementptr inbounds nuw i8, ptr %0, i64 264
  %20 = getelementptr inbounds nuw i8, ptr %6, i64 264
  %21 = load i64, ptr %20, align 8
  store i64 %21, ptr %19, align 8
  %22 = getelementptr inbounds nuw i8, ptr %6, i64 56
  %23 = load i32, ptr %22, align 8, !tbaa !101
  %24 = getelementptr inbounds nuw i8, ptr %0, i64 56
  store i32 %23, ptr %24, align 8, !tbaa !101
  %25 = getelementptr inbounds nuw i8, ptr %6, i64 60
  %26 = load i32, ptr %25, align 4, !tbaa !102
  %27 = getelementptr inbounds nuw i8, ptr %0, i64 60
  store i32 %26, ptr %27, align 4, !tbaa !102
  ret i32 0
}